target datalayout = "e-m:e-p270:32:32-p271:32:32-p272:64:64-i64:64-i128:128-f80:128-n8:16:32:64-S128"
target triple = "x86_64-pc-linux-gnu"

%struct.normal_encoding = type { %struct.encoding, [256 x i8], ptr, ptr, ptr, ptr, ptr, ptr, ptr, ptr, ptr }
%struct.encoding = type { [3 x ptr], [2 x ptr], ptr, ptr, ptr, ptr, ptr, ptr, ptr, ptr, ptr, ptr, i32, i8, i8 }

; Function Attrs: nounwind uwtable
define internal i32 @unicode_byte_type(i8 noundef signext %0, i8 noundef signext %1) #0 {
  %3 = alloca i32, align 4
  %4 = alloca i8, align 1
  %5 = alloca i8, align 1
  store i8 %0, ptr %4, align 1, !tbaa !13
  store i8 %1, ptr %5, align 1, !tbaa !13
  %6 = load i8, ptr %4, align 1, !tbaa !13
  %7 = zext i8 %6 to i32
  switch i32 %7, label %15 [
    i32 216, label %8
    i32 217, label %8
    i32 218, label %8
    i32 219, label %8
    i32 220, label %9
    i32 221, label %9
    i32 222, label %9
    i32 223, label %9
    i32 255, label %10
  ]

8:                                                ; preds = %2, %2, %2, %2
  store i32 7, ptr %3, align 4
  br label %16

9:                                                ; preds = %2, %2, %2, %2
  store i32 8, ptr %3, align 4
  br label %16

10:                                               ; preds = %2
  %11 = load i8, ptr %5, align 1, !tbaa !13
  %12 = zext i8 %11 to i32
  switch i32 %12, label %14 [
    i32 255, label %13
    i32 254, label %13
  ]

13:                                               ; preds = %10, %10
  store i32 0, ptr %3, align 4
  br label %16

14:                                               ; preds = %10
  br label %15

15:                                               ; preds = %2, %14
  store i32 29, ptr %3, align 4
  br label %16

16:                                               ; preds = %15, %13, %9, %8
  %17 = load i32, ptr %3, align 4
  ret i32 %17
}

; Function Attrs: nounwind uwtable
define internal i32 @little2_scanPoundName(ptr noundef %0, ptr noundef %1, ptr noundef %2, ptr noundef %3) #0 {
  %5 = alloca i32, align 4
  %6 = alloca ptr, align 8
  %7 = alloca ptr, align 8
  %8 = alloca ptr, align 8
  %9 = alloca ptr, align 8
  store ptr %0, ptr %6, align 8, !tbaa !45
  store ptr %1, ptr %7, align 8, !tbaa !4
  store ptr %2, ptr %8, align 8, !tbaa !4
  store ptr %3, ptr %9, align 8, !tbaa !9
  %10 = load ptr, ptr %8, align 8, !tbaa !4
  %11 = load ptr, ptr %7, align 8, !tbaa !4
  %12 = ptrtoint ptr %10 to i64
  %13 = ptrtoint ptr %11 to i64
  %14 = sub i64 %12, %13
  %15 = icmp sge i64 %14, 2
  br i1 %15, label %17, label %16

16:                                               ; preds = %4
  store i32 -1, ptr %5, align 4
  br label %218

17:                                               ; preds = %4
  %18 = load ptr, ptr %7, align 8, !tbaa !4
  %19 = getelementptr inbounds i8, ptr %18, i64 1
  %20 = load i8, ptr %19, align 1, !tbaa !13
  %21 = sext i8 %20 to i32
  %22 = icmp eq i32 %21, 0
  br i1 %22, label %23, label %32

23:                                               ; preds = %17
  %24 = load ptr, ptr %6, align 8, !tbaa !45
  %25 = getelementptr inbounds nuw %struct.normal_encoding, ptr %24, i32 0, i32 1
  %26 = load ptr, ptr %7, align 8, !tbaa !4
  %27 = load i8, ptr %26, align 1, !tbaa !13
  %28 = zext i8 %27 to i64
  %29 = getelementptr inbounds nuw [256 x i8], ptr %25, i64 0, i64 %28
  %30 = load i8, ptr %29, align 1, !tbaa !13
  %31 = zext i8 %30 to i32
  br label %40

32:                                               ; preds = %17
  %33 = load ptr, ptr %7, align 8, !tbaa !4
  %34 = getelementptr inbounds i8, ptr %33, i64 1
  %35 = load i8, ptr %34, align 1, !tbaa !13
  %36 = load ptr, ptr %7, align 8, !tbaa !4
  %37 = getelementptr inbounds i8, ptr %36, i64 0
  %38 = load i8, ptr %37, align 1, !tbaa !13
  %39 = call i32 @unicode_byte_type(i8 noundef signext %35, i8 noundef signext %38)
  br label %40

40:                                               ; preds = %32, %23
  %41 = phi i32 [ %31, %23 ], [ %39, %32 ]
  switch i32 %41, label %108 [
    i32 29, label %42
    i32 22, label %72
    i32 24, label %72
    i32 5, label %75
    i32 6, label %86
    i32 7, label %97
  ]

42:                                               ; preds = %40
  %43 = load ptr, ptr %7, align 8, !tbaa !4
  %44 = getelementptr inbounds i8, ptr %43, i64 1
  %45 = load i8, ptr %44, align 1, !tbaa !13
  %46 = zext i8 %45 to i64
  %47 = getelementptr inbounds nuw [256 x i8], ptr @nmstrtPages, i64 0, i64 %46
  %48 = load i8, ptr %47, align 1, !tbaa !13
  %49 = zext i8 %48 to i32
  %50 = shl i32 %49, 3
  %51 = load ptr, ptr %7, align 8, !tbaa !4
  %52 = getelementptr inbounds i8, ptr %51, i64 0
  %53 = load i8, ptr %52, align 1, !tbaa !13
  %54 = zext i8 %53 to i32
  %55 = ashr i32 %54, 5
  %56 = add nsw i32 %50, %55
  %57 = sext i32 %56 to i64
  %58 = getelementptr inbounds [320 x i32], ptr @namingBitmap, i64 0, i64 %57
  %59 = load i32, ptr %58, align 4, !tbaa !16
  %60 = load ptr, ptr %7, align 8, !tbaa !4
  %61 = getelementptr inbounds i8, ptr %60, i64 0
  %62 = load i8, ptr %61, align 1, !tbaa !13
  %63 = zext i8 %62 to i32
  %64 = and i32 %63, 31
  %65 = shl i32 1, %64
  %66 = and i32 %59, %65
  %67 = icmp ne i32 %66, 0
  br i1 %67, label %71, label %68

68:                                               ; preds = %42
  %69 = load ptr, ptr %7, align 8, !tbaa !4
  %70 = load ptr, ptr %9, align 8, !tbaa !9
  store ptr %69, ptr %70, align 8, !tbaa !4
  store i32 0, ptr %5, align 4
  br label %218

71:                                               ; preds = %42
  br label %72

72:                                               ; preds = %40, %40, %71
  %73 = load ptr, ptr %7, align 8, !tbaa !4
  %74 = getelementptr inbounds i8, ptr %73, i64 2
  store ptr %74, ptr %7, align 8, !tbaa !4
  br label %111

75:                                               ; preds = %40
  %76 = load ptr, ptr %8, align 8, !tbaa !4
  %77 = load ptr, ptr %7, align 8, !tbaa !4
  %78 = ptrtoint ptr %76 to i64
  %79 = ptrtoint ptr %77 to i64
  %80 = sub i64 %78, %79
  %81 = icmp slt i64 %80, 2
  br i1 %81, label %82, label %83

82:                                               ; preds = %75
  store i32 -2, ptr %5, align 4
  br label %218

83:                                               ; preds = %75
  %84 = load ptr, ptr %7, align 8, !tbaa !4
  %85 = load ptr, ptr %9, align 8, !tbaa !9
  store ptr %84, ptr %85, align 8, !tbaa !4
  store i32 0, ptr %5, align 4
  br label %218

86:                                               ; preds = %40
  %87 = load ptr, ptr %8, align 8, !tbaa !4
  %88 = load ptr, ptr %7, align 8, !tbaa !4
  %89 = ptrtoint ptr %87 to i64
  %90 = ptrtoint ptr %88 to i64
  %91 = sub i64 %89, %90
  %92 = icmp slt i64 %91, 3
  br i1 %92, label %93, label %94

93:                                               ; preds = %86
  store i32 -2, ptr %5, align 4
  br label %218

94:                                               ; preds = %86
  %95 = load ptr, ptr %7, align 8, !tbaa !4
  %96 = load ptr, ptr %9, align 8, !tbaa !9
  store ptr %95, ptr %96, align 8, !tbaa !4
  store i32 0, ptr %5, align 4
  br label %218

97:                                               ; preds = %40
  %98 = load ptr, ptr %8, align 8, !tbaa !4
  %99 = load ptr, ptr %7, align 8, !tbaa !4
  %100 = ptrtoint ptr %98 to i64
  %101 = ptrtoint ptr %99 to i64
  %102 = sub i64 %100, %101
  %103 = icmp slt i64 %102, 4
  br i1 %103, label %104, label %105

104:                                              ; preds = %97
  store i32 -2, ptr %5, align 4
  br label %218

105:                                              ; preds = %97
  %106 = load ptr, ptr %7, align 8, !tbaa !4
  %107 = load ptr, ptr %9, align 8, !tbaa !9
  store ptr %106, ptr %107, align 8, !tbaa !4
  store i32 0, ptr %5, align 4
  br label %218

108:                                              ; preds = %40
  %109 = load ptr, ptr %7, align 8, !tbaa !4
  %110 = load ptr, ptr %9, align 8, !tbaa !9
  store ptr %109, ptr %110, align 8, !tbaa !4
  store i32 0, ptr %5, align 4
  br label %218

111:                                              ; preds = %72
  br label %112

112:                                              ; preds = %216, %111
  %113 = load ptr, ptr %8, align 8, !tbaa !4
  %114 = load ptr, ptr %7, align 8, !tbaa !4
  %115 = ptrtoint ptr %113 to i64
  %116 = ptrtoint ptr %114 to i64
  %117 = sub i64 %115, %116
  %118 = icmp sge i64 %117, 2
  br i1 %118, label %119, label %217

119:                                              ; preds = %112
  %120 = load ptr, ptr %7, align 8, !tbaa !4
  %121 = getelementptr inbounds i8, ptr %120, i64 1
  %122 = load i8, ptr %121, align 1, !tbaa !13
  %123 = sext i8 %122 to i32
  %124 = icmp eq i32 %123, 0
  br i1 %124, label %125, label %134

125:                                              ; preds = %119
  %126 = load ptr, ptr %6, align 8, !tbaa !45
  %127 = getelementptr inbounds nuw %struct.normal_encoding, ptr %126, i32 0, i32 1
  %128 = load ptr, ptr %7, align 8, !tbaa !4
  %129 = load i8, ptr %128, align 1, !tbaa !13
  %130 = zext i8 %129 to i64
  %131 = getelementptr inbounds nuw [256 x i8], ptr %127, i64 0, i64 %130
  %132 = load i8, ptr %131, align 1, !tbaa !13
  %133 = zext i8 %132 to i32
  br label %142

134:                                              ; preds = %119
  %135 = load ptr, ptr %7, align 8, !tbaa !4
  %136 = getelementptr inbounds i8, ptr %135, i64 1
  %137 = load i8, ptr %136, align 1, !tbaa !13
  %138 = load ptr, ptr %7, align 8, !tbaa !4
  %139 = getelementptr inbounds i8, ptr %138, i64 0
  %140 = load i8, ptr %139, align 1, !tbaa !13
  %141 = call i32 @unicode_byte_type(i8 noundef signext %137, i8 noundef signext %140)
  br label %142

142:                                              ; preds = %134, %125
  %143 = phi i32 [ %133, %125 ], [ %141, %134 ]
  switch i32 %143, label %213 [
    i32 29, label %144
    i32 22, label %174
    i32 24, label %174
    i32 25, label %174
    i32 26, label %174
    i32 27, label %174
    i32 5, label %177
    i32 6, label %188
    i32 7, label %199
    i32 9, label %210
    i32 10, label %210
    i32 21, label %210
    i32 32, label %210
    i32 11, label %210
    i32 30, label %210
    i32 36, label %210
  ]

144:                                              ; preds = %142
  %145 = load ptr, ptr %7, align 8, !tbaa !4
  %146 = getelementptr inbounds i8, ptr %145, i64 1
  %147 = load i8, ptr %146, align 1, !tbaa !13
  %148 = zext i8 %147 to i64
  %149 = getelementptr inbounds nuw [256 x i8], ptr @namePages, i64 0, i64 %148
  %150 = load i8, ptr %149, align 1, !tbaa !13
  %151 = zext i8 %150 to i32
  %152 = shl i32 %151, 3
  %153 = load ptr, ptr %7, align 8, !tbaa !4
  %154 = getelementptr inbounds i8, ptr %153, i64 0
  %155 = load i8, ptr %154, align 1, !tbaa !13
  %156 = zext i8 %155 to i32
  %157 = ashr i32 %156, 5
  %158 = add nsw i32 %152, %157
  %159 = sext i32 %158 to i64
  %160 = getelementptr inbounds [320 x i32], ptr @namingBitmap, i64 0, i64 %159
  %161 = load i32, ptr %160, align 4, !tbaa !16
  %162 = load ptr, ptr %7, align 8, !tbaa !4
  %163 = getelementptr inbounds i8, ptr %162, i64 0
  %164 = load i8, ptr %163, align 1, !tbaa !13
  %165 = zext i8 %164 to i32
  %166 = and i32 %165, 31
  %167 = shl i32 1, %166
  %168 = and i32 %161, %167
  %169 = icmp ne i32 %168, 0
  br i1 %169, label %173, label %170

170:                                              ; preds = %144
  %171 = load ptr, ptr %7, align 8, !tbaa !4
  %172 = load ptr, ptr %9, align 8, !tbaa !9
  store ptr %171, ptr %172, align 8, !tbaa !4
  store i32 0, ptr %5, align 4
  br label %218

173:                                              ; preds = %144
  br label %174

174:                                              ; preds = %142, %142, %142, %142, %142, %173
  %175 = load ptr, ptr %7, align 8, !tbaa !4
  %176 = getelementptr inbounds i8, ptr %175, i64 2
  store ptr %176, ptr %7, align 8, !tbaa !4
  br label %216

177:                                              ; preds = %142
  %178 = load ptr, ptr %8, align 8, !tbaa !4
  %179 = load ptr, ptr %7, align 8, !tbaa !4
  %180 = ptrtoint ptr %178 to i64
  %181 = ptrtoint ptr %179 to i64
  %182 = sub i64 %180, %181
  %183 = icmp slt i64 %182, 2
  br i1 %183, label %184, label %185

184:                                              ; preds = %177
  store i32 -2, ptr %5, align 4
  br label %218

185:                                              ; preds = %177
  %186 = load ptr, ptr %7, align 8, !tbaa !4
  %187 = load ptr, ptr %9, align 8, !tbaa !9
  store ptr %186, ptr %187, align 8, !tbaa !4
  store i32 0, ptr %5, align 4
  br label %218

188:                                              ; preds = %142
  %189 = load ptr, ptr %8, align 8, !tbaa !4
  %190 = load ptr, ptr %7, align 8, !tbaa !4
  %191 = ptrtoint ptr %189 to i64
  %192 = ptrtoint ptr %190 to i64
  %193 = sub i64 %191, %192
  %194 = icmp slt i64 %193, 3
  br i1 %194, label %195, label %196

195:                                              ; preds = %188
  store i32 -2, ptr %5, align 4
  br label %218

196:                                              ; preds = %188
  %197 = load ptr, ptr %7, align 8, !tbaa !4
  %198 = load ptr, ptr %9, align 8, !tbaa !9
  store ptr %197, ptr %198, align 8, !tbaa !4
  store i32 0, ptr %5, align 4
  br label %218

199:                                              ; preds = %142
  %200 = load ptr, ptr %8, align 8, !tbaa !4
  %201 = load ptr, ptr %7, align 8, !tbaa !4
  %202 = ptrtoint ptr %200 to i64
  %203 = ptrtoint ptr %201 to i64
  %204 = sub i64 %202, %203
  %205 = icmp slt i64 %204, 4
  br i1 %205, label %206, label %207

206:                                              ; preds = %199
  store i32 -2, ptr %5, align 4
  br label %218

207:                                              ; preds = %199
  %208 = load ptr, ptr %7, align 8, !tbaa !4
  %209 = load ptr, ptr %9, align 8, !tbaa !9
  store ptr %208, ptr %209, align 8, !tbaa !4
  store i32 0, ptr %5, align 4
  br label %218

210:                                              ; preds = %142, %142, %142, %142, %142, %142, %142
  %211 = load ptr, ptr %7, align 8, !tbaa !4
  %212 = load ptr, ptr %9, align 8, !tbaa !9
  store ptr %211, ptr %212, align 8, !tbaa !4
  store i32 20, ptr %5, align 4
  br label %218

213:                                              ; preds = %142
  %214 = load ptr, ptr %7, align 8, !tbaa !4
  %215 = load ptr, ptr %9, align 8, !tbaa !9
  store ptr %214, ptr %215, align 8, !tbaa !4
  store i32 0, ptr %5, align 4
  br label %218

216:                                              ; preds = %174
  br label %112, !llvm.loop !129

217:                                              ; preds = %112
  store i32 -20, ptr %5, align 4
  br label %218

218:                                              ; preds = %217, %213, %210, %207, %206, %196, %195, %185, %184, %170, %108, %105, %104, %94, %93, %83, %82, %68, %16
  %219 = load i32, ptr %5, align 4
  ret i32 %219
}