; Function Attrs: nofree norecurse nosync nounwind memory(argmem: readwrite) uwtable
define internal fastcc range(i32 -20, 21) i32 @little2_scanPoundName(ptr noundef readonly captures(none) %0, ptr noundef %1, ptr noundef %2, ptr noundef writeonly captures(none) %3) unnamed_addr #4 {
  %5 = ptrtoint ptr %2 to i64
  %6 = ptrtoint ptr %1 to i64
  %7 = sub i64 %5, %6
  %8 = icmp sgt i64 %7, 1
  br i1 %8, label %9, label %.loopexit

9:                                                ; preds = %4
  %10 = getelementptr inbounds nuw i8, ptr %1, i64 1
  %11 = load i8, ptr %10, align 1, !tbaa !9
  switch i8 %11, label %unicode_byte_type.exit.thread92 [
    i8 0, label %unicode_byte_type.exit
    i8 -40, label %unicode_byte_type.exit.thread95
    i8 -39, label %unicode_byte_type.exit.thread95
    i8 -38, label %unicode_byte_type.exit.thread95
    i8 -37, label %unicode_byte_type.exit.thread95
    i8 -36, label %.loopexit.sink.split
    i8 -35, label %.loopexit.sink.split
    i8 -34, label %.loopexit.sink.split
    i8 -33, label %.loopexit.sink.split
    i8 -1, label %12
  ]

12:                                               ; preds = %9
  %13 = load i8, ptr %1, align 1, !tbaa !9
  %switch.i = icmp ugt i8 %13, -3
  br i1 %switch.i, label %.loopexit.sink.split, label %unicode_byte_type.exit.thread92

unicode_byte_type.exit:                           ; preds = %9
  %14 = getelementptr inbounds nuw i8, ptr %0, i64 128
  %15 = load i8, ptr %1, align 1, !tbaa !9
  %16 = zext i8 %15 to i64
  %17 = getelementptr inbounds nuw [256 x i8], ptr %14, i64 0, i64 %16
  %18 = load i8, ptr %17, align 1, !tbaa !9
  switch i8 %18, label %.loopexit.sink.split [
    i8 29, label %unicode_byte_type.exit.thread92
    i8 22, label %34
    i8 24, label %34
    i8 7, label %unicode_byte_type.exit.thread95
    i8 6, label %39
  ]

unicode_byte_type.exit.thread92:                  ; preds = %9, %12, %unicode_byte_type.exit
  %19 = zext i8 %11 to i64
  %20 = getelementptr inbounds nuw [256 x i8], ptr @nmstrtPages, i64 0, i64 %19
  %21 = load i8, ptr %20, align 1, !tbaa !9
  %22 = zext i8 %21 to i32
  %23 = shl nuw nsw i32 %22, 3
  %24 = load i8, ptr %1, align 1, !tbaa !9
  %25 = zext i8 %24 to i32
  %26 = lshr i32 %25, 5
  %27 = or disjoint i32 %26, %23
  %28 = zext nneg i32 %27 to i64
  %29 = getelementptr inbounds nuw [320 x i32], ptr @namingBitmap, i64 0, i64 %28
  %30 = load i32, ptr %29, align 4, !tbaa !14
  %31 = and i32 %25, 31
  %32 = shl nuw i32 1, %31
  %33 = and i32 %32, %30
  %.not = icmp eq i32 %33, 0
  br i1 %.not, label %.loopexit.sink.split, label %34

34:                                               ; preds = %unicode_byte_type.exit.thread92, %unicode_byte_type.exit, %unicode_byte_type.exit
  %.05676 = getelementptr inbounds nuw i8, ptr %1, i64 2
  %35 = ptrtoint ptr %.05676 to i64
  %36 = sub i64 %5, %35
  %37 = icmp sgt i64 %36, 1
  br i1 %37, label %.lr.ph, label %.loopexit

.lr.ph:                                           ; preds = %34
  %38 = getelementptr inbounds nuw i8, ptr %0, i64 128
  br label %42

39:                                               ; preds = %unicode_byte_type.exit
  %40 = icmp eq i64 %7, 2
  br i1 %40, label %.loopexit, label %.loopexit.sink.split

unicode_byte_type.exit.thread95:                  ; preds = %unicode_byte_type.exit, %9, %9, %9, %9
  %41 = icmp samesign ult i64 %7, 4
  br i1 %41, label %.loopexit, label %.loopexit.sink.split

42:                                               ; preds = %.lr.ph, %67
  %43 = phi i64 [ %36, %.lr.ph ], [ %69, %67 ]
  %.05678 = phi ptr [ %.05676, %.lr.ph ], [ %.056, %67 ]
  %.pn77 = phi ptr [ %1, %.lr.ph ], [ %.05678, %67 ]
  %44 = getelementptr inbounds nuw i8, ptr %.pn77, i64 3
  %45 = load i8, ptr %44, align 1, !tbaa !9
  switch i8 %45, label %unicode_byte_type.exit63.thread98 [
    i8 0, label %unicode_byte_type.exit63
    i8 -40, label %unicode_byte_type.exit63.thread101
    i8 -39, label %unicode_byte_type.exit63.thread101
    i8 -38, label %unicode_byte_type.exit63.thread101
    i8 -37, label %unicode_byte_type.exit63.thread101
    i8 -36, label %.loopexit.sink.split
    i8 -35, label %.loopexit.sink.split
    i8 -34, label %.loopexit.sink.split
    i8 -33, label %.loopexit.sink.split
    i8 -1, label %46
  ]

46:                                               ; preds = %42
  %47 = load i8, ptr %.05678, align 1, !tbaa !9
  %switch.i61 = icmp ugt i8 %47, -3
  br i1 %switch.i61, label %.loopexit.sink.split, label %unicode_byte_type.exit63.thread98

unicode_byte_type.exit63:                         ; preds = %42
  %48 = load i8, ptr %.05678, align 1, !tbaa !9
  %49 = zext i8 %48 to i64
  %50 = getelementptr inbounds nuw [256 x i8], ptr %38, i64 0, i64 %49
  %51 = load i8, ptr %50, align 1, !tbaa !9
  switch i8 %51, label %.loopexit.sink.split [
    i8 29, label %unicode_byte_type.exit63.thread98
    i8 22, label %67
    i8 24, label %67
    i8 25, label %67
    i8 26, label %67
    i8 27, label %67
    i8 36, label %.loopexit.sink.split.loopexit123
    i8 6, label %71
    i8 7, label %unicode_byte_type.exit63.thread101
    i8 9, label %.loopexit.sink.split.loopexit123
    i8 10, label %.loopexit.sink.split.loopexit123
    i8 21, label %.loopexit.sink.split.loopexit123
    i8 32, label %.loopexit.sink.split.loopexit123
    i8 11, label %.loopexit.sink.split.loopexit123
    i8 30, label %.loopexit.sink.split.loopexit123
  ]

unicode_byte_type.exit63.thread98:                ; preds = %42, %46, %unicode_byte_type.exit63
  %52 = zext i8 %45 to i64
  %53 = getelementptr inbounds nuw [256 x i8], ptr @namePages, i64 0, i64 %52
  %54 = load i8, ptr %53, align 1, !tbaa !9
  %55 = zext i8 %54 to i32
  %56 = shl nuw nsw i32 %55, 3
  %57 = load i8, ptr %.05678, align 1, !tbaa !9
  %58 = zext i8 %57 to i32
  %59 = lshr i32 %58, 5
  %60 = or disjoint i32 %59, %56
  %61 = zext nneg i32 %60 to i64
  %62 = getelementptr inbounds nuw [320 x i32], ptr @namingBitmap, i64 0, i64 %61
  %63 = load i32, ptr %62, align 4, !tbaa !14
  %64 = and i32 %58, 31
  %65 = shl nuw i32 1, %64
  %66 = and i32 %65, %63
  %.not60 = icmp eq i32 %66, 0
  br i1 %.not60, label %.loopexit.sink.split, label %67

67:                                               ; preds = %unicode_byte_type.exit63.thread98, %unicode_byte_type.exit63, %unicode_byte_type.exit63, %unicode_byte_type.exit63, %unicode_byte_type.exit63, %unicode_byte_type.exit63
  %.056 = getelementptr inbounds nuw i8, ptr %.05678, i64 2
  %68 = ptrtoint ptr %.056 to i64
  %69 = sub i64 %5, %68
  %70 = icmp sgt i64 %69, 1
  br i1 %70, label %42, label %.loopexit, !llvm.loop !116

71:                                               ; preds = %unicode_byte_type.exit63
  %72 = icmp eq i64 %43, 2
  br i1 %72, label %.loopexit, label %.loopexit.sink.split

unicode_byte_type.exit63.thread101:               ; preds = %42, %42, %42, %42, %unicode_byte_type.exit63
  %73 = icmp samesign ult i64 %43, 4
  br i1 %73, label %.loopexit, label %.loopexit.sink.split

.loopexit.sink.split.loopexit123:                 ; preds = %unicode_byte_type.exit63, %unicode_byte_type.exit63, %unicode_byte_type.exit63, %unicode_byte_type.exit63, %unicode_byte_type.exit63, %unicode_byte_type.exit63, %unicode_byte_type.exit63
  br label %.loopexit.sink.split

.loopexit.sink.split:                             ; preds = %unicode_byte_type.exit63, %46, %42, %42, %42, %42, %unicode_byte_type.exit63.thread98, %.loopexit.sink.split.loopexit123, %unicode_byte_type.exit63.thread101, %71, %unicode_byte_type.exit, %12, %9, %9, %9, %9, %unicode_byte_type.exit.thread95, %39, %unicode_byte_type.exit.thread92
  %.05678.lcssa103.sink = phi ptr [ %1, %unicode_byte_type.exit.thread92 ], [ %1, %39 ], [ %1, %unicode_byte_type.exit.thread95 ], [ %1, %9 ], [ %1, %9 ], [ %1, %9 ], [ %1, %9 ], [ %1, %12 ], [ %1, %unicode_byte_type.exit ], [ %.05678, %71 ], [ %.05678, %unicode_byte_type.exit63.thread101 ], [ %.05678, %.loopexit.sink.split.loopexit123 ], [ %.05678, %unicode_byte_type.exit63.thread98 ], [ %.05678, %42 ], [ %.05678, %42 ], [ %.05678, %42 ], [ %.05678, %42 ], [ %.05678, %46 ], [ %.05678, %unicode_byte_type.exit63 ]
  %.0.ph = phi i32 [ 0, %unicode_byte_type.exit.thread92 ], [ 0, %39 ], [ 0, %unicode_byte_type.exit.thread95 ], [ 0, %9 ], [ 0, %9 ], [ 0, %9 ], [ 0, %9 ], [ 0, %12 ], [ 0, %unicode_byte_type.exit ], [ 0, %71 ], [ 0, %unicode_byte_type.exit63.thread101 ], [ 20, %.loopexit.sink.split.loopexit123 ], [ 0, %unicode_byte_type.exit63.thread98 ], [ 0, %42 ], [ 0, %42 ], [ 0, %42 ], [ 0, %42 ], [ 0, %46 ], [ 0, %unicode_byte_type.exit63 ]
  store ptr %.05678.lcssa103.sink, ptr %3, align 8, !tbaa !4
  br label %.loopexit

.loopexit:                                        ; preds = %67, %.loopexit.sink.split, %34, %unicode_byte_type.exit63.thread101, %71, %unicode_byte_type.exit.thread95, %39, %4
  %.0 = phi i32 [ -1, %4 ], [ -2, %39 ], [ -2, %unicode_byte_type.exit.thread95 ], [ -2, %71 ], [ -2, %unicode_byte_type.exit63.thread101 ], [ -20, %34 ], [ %.0.ph, %.loopexit.sink.split ], [ -20, %67 ]
  ret i32 %.0
}